; Function Attrs: mustprogress nounwind uwtable
define dso_local i64 @_ZN4llvm13TargetMachine20parseBinutilsVersionENS_9StringRefE(ptr %0, i64 %1) local_unnamed_addr #0 align 2 {
  %3 = alloca i64, align 8
  %4 = alloca i64, align 8
  %5 = alloca %"class.llvm::StringRef", align 8
  store ptr %0, ptr %5, align 8
  %6 = getelementptr inbounds nuw i8, ptr %5, i64 8
  store i64 %1, ptr %6, align 8
  %.not.i = icmp eq i64 %1, 4
  br i1 %.not.i, label %_ZN4llvmeqENS_9StringRefES0_.exit, label %_ZN4llvmeqENS_9StringRefES0_.exit.thread11

_ZN4llvmeqENS_9StringRefES0_.exit:                ; preds = %2
  %bcmp.i = tail call i32 @bcmp(ptr noundef nonnull dereferenceable(4) %0, ptr noundef nonnull dereferenceable(4) @.str.12, i64 4)
  %7 = icmp eq i32 %bcmp.i, 0
  br i1 %7, label %_ZN4llvmeqENS_9StringRefES0_.exit.thread, label %_ZN4llvmeqENS_9StringRefES0_.exit.thread11

_ZN4llvmeqENS_9StringRefES0_.exit.thread11:       ; preds = %2, %_ZN4llvmeqENS_9StringRefES0_.exit
  call void @llvm.lifetime.start.p0(i64 8, ptr nonnull %4)
  %8 = call noundef zeroext i1 @_ZN4llvm20consumeSignedIntegerERNS_9StringRefEjRx(ptr noundef nonnull align 8 dereferenceable(16) %5, i32 noundef 10, ptr noundef nonnull align 8 dereferenceable(8) %4) #15
  br i1 %8, label %_ZN4llvm9StringRef14consumeIntegerIiEEbjRT_.exit.thread, label %9

9:                                                ; preds = %_ZN4llvmeqENS_9StringRefES0_.exit.thread11
  %10 = load i64, ptr %4, align 8
  %11 = add i64 %10, 2147483648
  %.not.i1 = icmp ult i64 %11, 4294967296
  br i1 %.not.i1, label %12, label %_ZN4llvm9StringRef14consumeIntegerIiEEbjRT_.exit.thread

_ZN4llvm9StringRef14consumeIntegerIiEEbjRT_.exit.thread: ; preds = %9, %_ZN4llvmeqENS_9StringRefES0_.exit.thread11
  call void @llvm.lifetime.end.p0(i64 8, ptr nonnull %4)
  br label %_ZN4llvmeqENS_9StringRefES0_.exit.thread

12:                                               ; preds = %9
  call void @llvm.lifetime.end.p0(i64 8, ptr nonnull %4)
  %13 = load i64, ptr %6, align 8
  %.not.i.i = icmp eq i64 %13, 0
  br i1 %.not.i.i, label %_ZN4llvmeqENS_9StringRefES0_.exit.thread, label %_ZNK4llvm9StringRef11starts_withES0_.exit.i

_ZNK4llvm9StringRef11starts_withES0_.exit.i:      ; preds = %12
  %.pre.i = load ptr, ptr %5, align 8
  %lhsc = load i8, ptr %.pre.i, align 1
  %14 = icmp eq i8 %lhsc, 46
  br i1 %14, label %_ZN4llvm9StringRef14consumeIntegerIiEEbjRT_.exit5, label %_ZN4llvmeqENS_9StringRefES0_.exit.thread

_ZN4llvm9StringRef14consumeIntegerIiEEbjRT_.exit5: ; preds = %_ZNK4llvm9StringRef11starts_withES0_.exit.i
  %15 = getelementptr inbounds i8, ptr %.pre.i, i64 1
  %16 = add i64 %13, -1
  store ptr %15, ptr %5, align 8
  store i64 %16, ptr %6, align 8
  call void @llvm.lifetime.start.p0(i64 8, ptr nonnull %3)
  %17 = call noundef zeroext i1 @_ZN4llvm20consumeSignedIntegerERNS_9StringRefEjRx(ptr noundef nonnull align 8 dereferenceable(16) %5, i32 noundef 10, ptr noundef nonnull align 8 dereferenceable(8) %3) #15
  %18 = load i64, ptr %3, align 8
  %19 = add i64 %18, 2147483648
  %.not.i3 = icmp ult i64 %19, 4294967296
  %20 = shl i64 %18, 32
  call void @llvm.lifetime.end.p0(i64 8, ptr nonnull %3)
  %21 = select i1 %.not.i3, i64 %20, i64 0
  %22 = select i1 %17, i64 0, i64 %21
  br label %_ZN4llvmeqENS_9StringRefES0_.exit.thread

_ZN4llvmeqENS_9StringRefES0_.exit.thread:         ; preds = %12, %_ZNK4llvm9StringRef11starts_withES0_.exit.i, %_ZN4llvm9StringRef14consumeIntegerIiEEbjRT_.exit.thread, %_ZN4llvmeqENS_9StringRefES0_.exit, %_ZN4llvm9StringRef14consumeIntegerIiEEbjRT_.exit5
  %.sroa.09.0 = phi i64 [ %10, %_ZN4llvm9StringRef14consumeIntegerIiEEbjRT_.exit5 ], [ 2147483647, %_ZN4llvmeqENS_9StringRefES0_.exit ], [ 0, %_ZN4llvm9StringRef14consumeIntegerIiEEbjRT_.exit.thread ], [ %10, %_ZNK4llvm9StringRef11starts_withES0_.exit.i ], [ %10, %12 ]
  %.sroa.4.0 = phi i64 [ %22, %_ZN4llvm9StringRef14consumeIntegerIiEEbjRT_.exit5 ], [ 9223372032559808512, %_ZN4llvmeqENS_9StringRefES0_.exit ], [ 0, %_ZN4llvm9StringRef14consumeIntegerIiEEbjRT_.exit.thread ], [ 0, %_ZNK4llvm9StringRef11starts_withES0_.exit.i ], [ 0, %12 ]
  %.sroa.09.0.insert.ext = and i64 %.sroa.09.0, 4294967295
  %.sroa.09.0.insert.insert = or i64 %.sroa.4.0, %.sroa.09.0.insert.ext
  ret i64 %.sroa.09.0.insert.insert
}